target datalayout = "e-m:e-p270:32:32-p271:32:32-p272:64:64-i64:64-i128:128-f80:128-n8:16:32:64-S128"
target triple = "x86_64-pc-linux-gnu"

%"class.net::StrikeRegister" = type { i32, i32, i32, [8 x i8], i32, i32, i32, i32, ptr, %"class.std::unique_ptr" }
%"class.std::unique_ptr" = type { %"struct.std::__uniq_ptr_data" }
%"struct.std::__uniq_ptr_data" = type { %"class.std::__uniq_ptr_impl" }
%"class.std::__uniq_ptr_impl" = type { %"class.std::tuple" }
%"class.std::tuple" = type { %"struct.std::_Tuple_impl" }
%"struct.std::_Tuple_impl" = type { %"struct.std::_Head_base.1" }
%"struct.std::_Head_base.1" = type { ptr }
%"class.net::StrikeRegister::InternalNode" = type { [2 x i32] }

; Function Attrs: mustprogress nounwind uwtable
define linkonce_odr noundef i32 @_ZNK3net14StrikeRegister12InternalNode4nextEv(ptr noundef nonnull align 4 dereferenceable(8) %0) #3 comdat align 2 {
  %2 = alloca ptr, align 8
  store ptr %0, ptr %2, align 8, !tbaa !51
  %3 = load ptr, ptr %2, align 8
  %4 = getelementptr inbounds nuw %"class.net::StrikeRegister::InternalNode", ptr %3, i32 0, i32 0
  %5 = getelementptr inbounds [2 x i32], ptr %4, i64 0, i64 0
  %6 = load i32, ptr %5, align 4, !tbaa !3
  ret i32 %6
}

; Function Attrs: mustprogress uwtable
define noundef i32 @_ZN3net14StrikeRegister19GetFreeInternalNodeEv(ptr noundef nonnull align 8 dereferenceable(56) %0) #0 align 2 {
  %2 = alloca ptr, align 8
  %3 = alloca i32, align 4
  store ptr %0, ptr %2, align 8, !tbaa !24
  %4 = load ptr, ptr %2, align 8
  call void @llvm.lifetime.start.p0(i64 4, ptr %3) #17
  %5 = getelementptr inbounds nuw %"class.net::StrikeRegister", ptr %4, i32 0, i32 5
  %6 = load i32, ptr %5, align 8, !tbaa !43
  store i32 %6, ptr %3, align 4, !tbaa !3
  %7 = getelementptr inbounds nuw %"class.net::StrikeRegister", ptr %4, i32 0, i32 8
  %8 = load ptr, ptr %7, align 8, !tbaa !40
  %9 = load i32, ptr %3, align 4, !tbaa !3
  %10 = zext i32 %9 to i64
  %11 = getelementptr inbounds nuw %"class.net::StrikeRegister::InternalNode", ptr %8, i64 %10
  %12 = call noundef i32 @_ZNK3net14StrikeRegister12InternalNode4nextEv(ptr noundef nonnull align 4 dereferenceable(8) %11)
  %13 = getelementptr inbounds nuw %"class.net::StrikeRegister", ptr %4, i32 0, i32 5
  store i32 %12, ptr %13, align 8, !tbaa !43
  %14 = load i32, ptr %3, align 4, !tbaa !3
  call void @llvm.lifetime.end.p0(i64 4, ptr %3) #17
  ret i32 %14
}