; Function Attrs: mustprogress nofree norecurse nosync nounwind willreturn memory(read, argmem: readwrite, inaccessiblemem: none) uwtable
define noundef i32 @_ZN3net14StrikeRegister19GetFreeInternalNodeEv(ptr noundef nonnull align 8 captures(none) dereferenceable(56) %0) local_unnamed_addr #12 align 2 {
  %2 = getelementptr inbounds nuw i8, ptr %0, i64 24
  %3 = load i32, ptr %2, align 8, !tbaa !24
  %4 = getelementptr inbounds nuw i8, ptr %0, i64 40
  %5 = load ptr, ptr %4, align 8, !tbaa !22
  %6 = zext i32 %3 to i64
  %7 = getelementptr inbounds nuw %"class.net::StrikeRegister::InternalNode", ptr %5, i64 %6
  %8 = load i32, ptr %7, align 4, !tbaa !3
  store i32 %8, ptr %2, align 8, !tbaa !24
  ret i32 %3
}